Certificate:
    Data:
        Version: 3 (0x2)
        Serial Number: 4096 (0x1000)
    Signature Algorithm: sha1WithRSAEncryption
        Issuer: C=AU, ST=Some-State, O=Internet Widgits Pty Ltd, CN=My Root CA
        Validity
            Not Before: Feb 14 08:42:28 2014 GMT
            Not After : Feb 14 08:42:28 2015 GMT
        Subject: C=AU, ST=Some-State, O=Internet Widgits Pty Ltd, CN=My Intermediate CA
        Subject Public Key Info:
            Public Key Algorithm: rsaEncryption
                Public-Key: (1024 bit)
                Modulus:
                    00:b3:20:5d:47:c9:c8:69:cf:ef:d3:65:a9:86:f9:
                    40:54:b4:b6:6e:07:a3:01:2b:a3:00:76:02:96:c3:
                    5b:12:d8:5e:bd:b8:03:a0:85:db:0f:10:fb:77:9b:
                    d4:d8:cb:34:72:3d:9f:8a:f2:11:a6:0d:5a:1c:41:
                    2d:a9:05:2c:e0:d5:af:2d:07:61:27:02:05:f9:e6:
                    56:e5:ee:8f:70:c3:5b:28:ae:12:08:93:63:71:36:
                    8e:df:35:6f:b4:e8:f4:6c:49:01:cb:2c:ad:3d:bf:
                    85:74:be:b9:c7:32:30:29:9b:04:a1:9a:ae:3b:27:
                    4a:d5:c8:65:6b:32:20:04:05
                Exponent: 65537 (0x10001)
        X509v3 extensions:
            X509v3 Subject Key Identifier: 
                D4:FC:B7:ED:A4:C0:70:6C:8B:66:BC:2F:7A:AB:05:EB:90:FE:C7:31
            X509v3 Authority Key Identifier: 
                keyid:0D:C6:AB:A1:08:6C:1C:6D:03:02:01:EE:58:66:D6:B5:30:56:41:D5

            X509v3 Basic Constraints: critical
                CA:TRUE, pathlen:0
    Signature Algorithm: sha1WithRSAEncryption
         6b:24:80:ae:b7:6a:53:81:ea:d5:56:a8:61:02:ed:dc:a6:97:
         be:3e:33:b0:08:da:27:dd:ea:67:41:2d:03:65:3e:65:89:6f:
         6d:41:ae:24:f6:49:94:88:e4:51:0a:69:64:56:47:a5:82:53:
         d8:c4:e1:08:c6:01:c9:bd:00:7a:44:6c:89:2b:83:c8:c0:f6:
         bb:6d:3d:f7:d0:07:ad:08:1e:d1:29:b4:23:ca:00:f8:91:fe:
         fb:ac:07:9f:c4:1b:67:8b:06:4e:83:04:20:dd:6f:e6:73:b8:
         7e:97:77:44:ac:60:27:69:fc:e0:75:0a:54:93:a1:ff:49:7c:
         d7:71
-----BEGIN CERTIFICATE-----
MIICiTCCAfKgAwIBAgICEAAwDQYJKoZIhvcNAQEFBQAwWjELMAkGA1UEBhMCQVUx
EzARBgNVBAgMClNvbWUtU3RhdGUxITAfBgNVBAoMGEludGVybmV0IFdpZGdpdHMg
UHR5IEx0ZDETMBEGA1UEAwwKTXkgUm9vdCBDQTAeFw0xNDAyMTQwODQyMjhaFw0x
NTAyMTQwODQyMjhaMGIxCzAJBgNVBAYTAkFVMRMwEQYDVQQIDApTb21lLVN0YXRl
MSEwHwYDVQQKDBhJbnRlcm5ldCBXaWRnaXRzIFB0eSBMdGQxGzAZBgNVBAMMEk15
IEludGVybWVkaWF0ZSBDQTCBnzANBgkqhkiG9w0BAQEFAAOBjQAwgYkCgYEAsyBd
R8nIac/v02WphvlAVLS2bgejASujAHYClsNbEthevbgDoIXbDxD7d5vU2Ms0cj2f
ivIRpg1aHEEtqQUs4NWvLQdhJwIF+eZW5e6PcMNbKK4SCJNjcTaO3zVvtOj0bEkB
yyytPb+FdL65xzIwKZsEoZquOydK1chlazIgBAUCAwEAAaNWMFQwHQYDVR0OBBYE
FNT8t+2kwHBsi2a8L3qrBeuQ/scxMB8GA1UdIwQYMBaAFA3Gq6EIbBxtAwIB7lhm
1rUwVkHVMBIGA1UdEwEB/wQIMAYBAf8CAQAwDQYJKoZIhvcNAQEFBQADgYEAaySA
rrdqU4Hq1VaoYQLt3KaXvj4zsAjaJ93qZ0EtA2U+ZYlvbUGuJPZJlIjkUQppZFZH
pYJT2MThCMYByb0AekRsiSuDyMD2u20999AHrQge0Sm0I8oA+JH++6wHn8QbZ4sG
ToMEIN1v5nO4fpd3RKxgJ2n84HUKVJOh/0l813E=
-----END CERTIFICATE-----
-----BEGIN CERTIFICATE-----
MIICiDCCAfGgAwIBAgIJAL5trEpoP/e5MA0GCSqGSIb3DQEBBQUAMFoxCzAJBgNV
BAYTAkFVMRMwEQYDVQQIDApTb21lLVN0YXRlMSEwHwYDVQQKDBhJbnRlcm5ldCBX
aWRnaXRzIFB0eSBMdGQxEzARBgNVBAMMCk15IFJvb3QgQ0EwHhcNMTQwMjE0MDgz
NDE5WhcNMTQwMzE2MDgzNDE5WjBaMQswCQYDVQQGEwJBVTETMBEGA1UECAwKU29t
ZS1TdGF0ZTEhMB8GA1UECgwYSW50ZXJuZXQgV2lkZ2l0cyBQdHkgTHRkMRMwEQYD
VQQDDApNeSBSb290IENBMIGfMA0GCSqGSIb3DQEBAQUAA4GNADCBiQKBgQDNEiFb
Qq8GItVqzs8cCTDEhdocU0ZH+r7NIw9LgpwEMIqhDHrUqj9bcJBPwCWEQWdvAvn+
DJ1aPgZd5OhmqGJWSsj18dsn3IU3TiZ9v/OKJC8Nz3HyChsUmOeRRcUgNH4STVCi
MW1AQAa4H7sek7yhLLn3sZijzDjLzMJUSdO12wIDAQABo1YwVDAdBgNVHQ4EFgQU
DcaroQhsHG0DAgHuWGbWtTBWQdUwHwYDVR0jBBgwFoAUDcaroQhsHG0DAgHuWGbW
tTBWQdUwEgYDVR0TAQH/BAgwBgEB/wIBADANBgkqhkiG9w0BAQUFAAOBgQCN0ZDp
wxLhJgK23Tibr/PhTrHjAg1gGrZssFUbVfCGAzwSnfjcE0K53WDuzfFqE4f++lQ2
8a4BIdRE52FlN8tXu2KXHJ4BPRutYu8voLd00UM3J3ms2hr5lTG6ZYLa8t0HMf15
AK/L6DcP+dt/O2lPoeIX7CNMKXLlUSGINpBuzQ==
-----END CERTIFICATE-----
