Certificate:
    Data:
        Version: 3 (0x2)
        Serial Number: 4096 (0x1000)
    Signature Algorithm: sha1WithRSAEncryption
        Issuer: C=AU, ST=Some-State, O=Internet Widgits Pty Ltd, CN=My Root CA
        Validity
            Not Before: Feb 14 09:28:17 2014 GMT
            Not After : Feb 14 09:28:17 2015 GMT
        Subject: C=AU, ST=Some-State, O=Internet Widgits Pty Ltd, CN=My Intermediate CA
        Subject Public Key Info:
            Public Key Algorithm: rsaEncryption
                Public-Key: (1024 bit)
                Modulus:
                    00:b3:20:5d:47:c9:c8:69:cf:ef:d3:65:a9:86:f9:
                    40:54:b4:b6:6e:07:a3:01:2b:a3:00:76:02:96:c3:
                    5b:12:d8:5e:bd:b8:03:a0:85:db:0f:10:fb:77:9b:
                    d4:d8:cb:34:72:3d:9f:8a:f2:11:a6:0d:5a:1c:41:
                    2d:a9:05:2c:e0:d5:af:2d:07:61:27:02:05:f9:e6:
                    56:e5:ee:8f:70:c3:5b:28:ae:12:08:93:63:71:36:
                    8e:df:35:6f:b4:e8:f4:6c:49:01:cb:2c:ad:3d:bf:
                    85:74:be:b9:c7:32:30:29:9b:04:a1:9a:ae:3b:27:
                    4a:d5:c8:65:6b:32:20:04:05
                Exponent: 65537 (0x10001)
        X509v3 extensions:
            X509v3 Subject Key Identifier: 
                D4:FC:B7:ED:A4:C0:70:6C:8B:66:BC:2F:7A:AB:05:EB:90:FE:C7:31
            X509v3 Authority Key Identifier: 
                keyid:FF:24:F2:BF:2A:6C:D8:1B:A7:BD:CB:FF:F7:D0:30:61:A6:A4:0E:BE

            X509v3 Basic Constraints: critical
                CA:TRUE, pathlen:0
    Signature Algorithm: sha1WithRSAEncryption
         01:73:17:5a:b4:07:80:38:4b:07:5f:44:8e:82:72:b7:9c:08:
         d3:e2:33:a5:9e:37:5b:7a:54:84:99:53:da:79:99:84:c8:50:
         06:f1:a0:76:73:2b:3b:ba:2d:db:6f:02:1a:ca:6d:fd:8a:15:
         b0:be:2d:16:8f:eb:9d:04:82:0a:0d:60:7f:04:d7:17:79:11:
         63:c8:c6:76:35:f3:89:0d:f7:51:48:7b:d3:ee:51:8f:a6:f3:
         6f:6a:82:34:46:6b:46:c8:8a:4b:56:4e:2d:f1:f0:e4:fb:80:
         38:67:a0:2e:8f:46:4b:24:97:28:84:5a:8e:e5:50:4b:4c:6e:
         1c:40
-----BEGIN CERTIFICATE-----
MIICiTCCAfKgAwIBAgICEAAwDQYJKoZIhvcNAQEFBQAwWjELMAkGA1UEBhMCQVUx
EzARBgNVBAgMClNvbWUtU3RhdGUxITAfBgNVBAoMGEludGVybmV0IFdpZGdpdHMg
UHR5IEx0ZDETMBEGA1UEAwwKTXkgUm9vdCBDQTAeFw0xNDAyMTQwOTI4MTdaFw0x
NTAyMTQwOTI4MTdaMGIxCzAJBgNVBAYTAkFVMRMwEQYDVQQIDApTb21lLVN0YXRl
MSEwHwYDVQQKDBhJbnRlcm5ldCBXaWRnaXRzIFB0eSBMdGQxGzAZBgNVBAMMEk15
IEludGVybWVkaWF0ZSBDQTCBnzANBgkqhkiG9w0BAQEFAAOBjQAwgYkCgYEAsyBd
R8nIac/v02WphvlAVLS2bgejASujAHYClsNbEthevbgDoIXbDxD7d5vU2Ms0cj2f
ivIRpg1aHEEtqQUs4NWvLQdhJwIF+eZW5e6PcMNbKK4SCJNjcTaO3zVvtOj0bEkB
yyytPb+FdL65xzIwKZsEoZquOydK1chlazIgBAUCAwEAAaNWMFQwHQYDVR0OBBYE
FNT8t+2kwHBsi2a8L3qrBeuQ/scxMB8GA1UdIwQYMBaAFP8k8r8qbNgbp73L//fQ
MGGmpA6+MBIGA1UdEwEB/wQIMAYBAf8CAQAwDQYJKoZIhvcNAQEFBQADgYEAAXMX
WrQHgDhLB19EjoJyt5wI0+IzpZ43W3pUhJlT2nmZhMhQBvGgdnMrO7ot228CGspt
/YoVsL4tFo/rnQSCCg1gfwTXF3kRY8jGdjXziQ33UUh70+5Rj6bzb2qCNEZrRsiK
S1ZOLfHw5PuAOGegLo9GSySXKIRajuVQS0xuHEA=
-----END CERTIFICATE-----
