Certificate:
    Data:
        Version: 3 (0x2)
        Serial Number: 4097 (0x1001)
    Signature Algorithm: sha1WithRSAEncryption
        Issuer: C=AU, ST=Some-State, O=Internet Widgits Pty Ltd, CN=My Intermediate CA
        Validity
            Not Before: Feb 14 09:28:25 2014 GMT
            Not After : Feb 14 09:28:25 2015 GMT
        Subject: C=AU, ST=Some-State, O=Internet Widgits Pty Ltd, CN=www.myserver.com
        Subject Public Key Info:
            Public Key Algorithm: rsaEncryption
                Public-Key: (1024 bit)
                Modulus:
                    00:ba:7e:59:d4:c0:24:3b:94:18:29:65:6d:98:79:
                    ac:90:48:d0:38:52:d1:18:17:28:85:61:7a:b5:36:
                    27:69:2b:d2:5c:54:b3:6a:26:dc:3a:e3:0c:df:5c:
                    e6:3b:86:0b:12:65:07:13:bc:2b:42:33:5a:27:fb:
                    53:5b:a7:26:d6:0f:d6:64:25:68:70:94:ec:cb:c4:
                    24:d8:09:06:89:a6:61:08:c6:a6:30:5b:78:ae:be:
                    d9:83:88:61:07:45:66:c5:0f:17:77:6c:37:0c:ba:
                    f2:aa:ea:fd:03:6d:4d:f6:b3:b1:6e:7d:54:f2:bd:
                    ce:11:dc:c6:64:fd:ca:04:13
                Exponent: 65537 (0x10001)
        X509v3 extensions:
            X509v3 Basic Constraints: 
                CA:FALSE
            Netscape Comment: 
                OpenSSL Generated Certificate
            X509v3 Subject Key Identifier: 
                86:EA:6D:0E:C3:7C:6C:A2:A0:D1:08:79:91:76:73:29:B1:44:2B:DC
            X509v3 Authority Key Identifier: 
                keyid:D4:FC:B7:ED:A4:C0:70:6C:8B:66:BC:2F:7A:AB:05:EB:90:FE:C7:31

    Signature Algorithm: sha1WithRSAEncryption
         0e:71:f3:9c:40:38:da:67:bf:28:d4:5a:13:ef:80:67:a8:10:
         56:33:d9:0f:27:b3:2f:4b:6b:81:3d:26:c2:02:c2:88:c6:f9:
         c0:50:83:e2:15:fc:d3:a9:a8:33:63:14:8e:23:24:d4:8b:65:
         61:ef:72:c8:57:0e:7c:60:81:a2:ef:6d:38:c9:2b:1a:16:b3:
         2a:9c:f5:f4:e1:9f:08:b4:fe:96:7a:de:4e:d0:7c:1c:bc:59:
         0d:a6:c6:63:71:b9:78:b4:35:da:6b:6a:03:77:11:9c:05:14:
         36:09:42:4f:02:86:dd:ec:3a:66:45:96:6c:51:3e:de:81:b9:
         1f:65
-----BEGIN CERTIFICATE-----
MIICtDCCAh2gAwIBAgICEAEwDQYJKoZIhvcNAQEFBQAwYjELMAkGA1UEBhMCQVUx
EzARBgNVBAgMClNvbWUtU3RhdGUxITAfBgNVBAoMGEludGVybmV0IFdpZGdpdHMg
UHR5IEx0ZDEbMBkGA1UEAwwSTXkgSW50ZXJtZWRpYXRlIENBMB4XDTE0MDIxNDA5
MjgyNVoXDTE1MDIxNDA5MjgyNVowYDELMAkGA1UEBhMCQVUxEzARBgNVBAgMClNv
bWUtU3RhdGUxITAfBgNVBAoMGEludGVybmV0IFdpZGdpdHMgUHR5IEx0ZDEZMBcG
A1UEAwwQd3d3Lm15c2VydmVyLmNvbTCBnzANBgkqhkiG9w0BAQEFAAOBjQAwgYkC
gYEAun5Z1MAkO5QYKWVtmHmskEjQOFLRGBcohWF6tTYnaSvSXFSzaibcOuMM31zm
O4YLEmUHE7wrQjNaJ/tTW6cm1g/WZCVocJTsy8Qk2AkGiaZhCMamMFt4rr7Zg4hh
B0VmxQ8Xd2w3DLryqur9A21N9rOxbn1U8r3OEdzGZP3KBBMCAwEAAaN7MHkwCQYD
VR0TBAIwADAsBglghkgBhvhCAQ0EHxYdT3BlblNTTCBHZW5lcmF0ZWQgQ2VydGlm
aWNhdGUwHQYDVR0OBBYEFIbqbQ7DfGyioNEIeZF2cymxRCvcMB8GA1UdIwQYMBaA
FNT8t+2kwHBsi2a8L3qrBeuQ/scxMA0GCSqGSIb3DQEBBQUAA4GBAA5x85xAONpn
vyjUWhPvgGeoEFYz2Q8nsy9La4E9JsICwojG+cBQg+IV/NOpqDNjFI4jJNSLZWHv
cshXDnxggaLvbTjJKxoWsyqc9fThnwi0/pZ63k7QfBy8WQ2mxmNxuXi0NdpragN3
EZwFFDYJQk8Cht3sOmZFlmxRPt6BuR9l
-----END CERTIFICATE-----
